-----BEGIN CERTIFICATE-----
MIICRDCCAcqgAwIBAgIBAjAKBggqhkjOPQQDAjBKMQswCQYDVQQGEwJVUzEfMB0G
A1UECgwWUGVuc2FuZG8gU3lzdGVtcywgSW5jLjEaMBgGA1UEAwwRTWFudWZhY3R1
cmluZyBDQTEwIhgPMjAxNjEyMjAxMjAwMDBaGA8yMDM2MTIyMDEyMDAwMFowVjEL
MAkGA1UEBhMCVVMxHzAdBgNVBAoMFlBlbnNhbmRvIFN5c3RlbXMsIEluYy4xDDAK
BgNVBAsMA1BLSTEYMBYGA1UEAwwPTVRQIFRlc3QgQ2xpZW50MFkwEwYHKoZIzj0C
AQYIKoZIzj0DAQcDQgAEo6xs7Wq4Yj8WJ/N4oKEHCrWpyU5igH2Hecoo+Y4GLnyd
FXVbVujOkD5XBmupkRhsYJBK0JVnIoNyFdWrRwazw6OBkDCBjTAJBgNVHRMEAjAA
MBEGCWCGSAGG+EIBAQQEAwIFoDAdBgNVHQ4EFgQUHtWykfVDb81fwl9eQVMPq3ZO
3/MwHwYDVR0jBBgwFoAUljfjYT98Y0rPmoZYsj2HvHPMXJowDgYDVR0PAQH/BAQD
AgXgMB0GA1UdJQQWMBQGCCsGAQUFBwMCBggrBgEFBQcDBDAKBggqhkjOPQQDAgNo
ADBlAjAyTqYX/h20SOWcqpVgLHNZpyYAwjdzlyVGoLJKpcYk2zxxV7UdNDRo3vhK
9NJyawMCMQCQkZkC3m4ckQyyu+LcVBGjEKdGNsk3orjxL5LvsyaXADSw2OnAVlcx
r4UbIBZ3fUM=
-----END CERTIFICATE-----
Certificate:
    Data:
        Version: 3 (0x2)
        Serial Number:
            70:0e:e7:51:01:71:12:62:cf:82:d8:19:9d:75:79:0d
    Signature Algorithm: sha384WithRSAEncryption
        Issuer: C=US, O=Pensando Systems, Inc., CN=PS Root R1
        Validity
            Not Before: Dec 20 12:00:00 2016 GMT
            Not After : Dec 20 12:00:00 2036 GMT
        Subject: C=US, O=Pensando Systems, Inc., CN=Manufacturing CA1
        Subject Public Key Info:
            Public Key Algorithm: id-ecPublicKey
                Public-Key: (384 bit)
                pub: 
                    04:a1:a5:8a:70:7e:8c:c2:14:d5:bf:49:a7:42:b1:
                    9c:7b:74:08:0c:6a:d2:f0:e7:9e:72:7b:48:1e:9f:
                    17:59:c0:cb:bc:6f:89:8d:c5:d4:22:03:b5:2c:d0:
                    51:dc:40:6e:27:17:14:e6:9d:40:5f:12:23:08:a1:
                    54:53:38:b8:1f:cb:d2:bf:0d:2b:a9:64:eb:65:aa:
                    2c:92:37:9a:68:52:9f:db:41:ce:36:67:16:a5:0b:
                    fa:e3:ff:ed:8b:5a:00
                ASN1 OID: secp384r1
        X509v3 extensions:
            X509v3 Subject Key Identifier: 
                96:37:E3:61:3F:7C:63:4A:CF:9A:86:58:B2:3D:87:BC:73:CC:5C:9A
            X509v3 Authority Key Identifier: 
                keyid:9F:0A:3F:41:70:9E:AC:29:F7:C3:35:D1:F0:5C:44:FB:60:78:4E:DF

            X509v3 Basic Constraints: critical
                CA:TRUE, pathlen:0
            X509v3 Key Usage: critical
                Certificate Sign, CRL Sign
    Signature Algorithm: sha384WithRSAEncryption
         91:8b:90:ee:b1:bd:3a:27:42:e9:74:da:4b:76:68:10:c4:f8:
         0e:ac:ec:77:8a:ef:81:f3:5f:ab:de:0e:7c:f8:85:cd:ce:f4:
         0b:37:99:0a:9e:a4:4c:fa:5d:27:ff:9c:17:f6:0e:71:9a:57:
         ae:75:d7:f6:38:4b:31:af:e3:f6:4b:6f:65:0c:d0:77:bd:ed:
         3c:36:48:a8:06:06:7a:ae:e4:05:ca:20:8f:4b:78:ca:ed:fc:
         63:30:1d:34:f3:28:38:21:be:59:fc:6e:74:95:ac:cc:30:fe:
         6d:9e:2d:3d:70:04:2e:af:75:25:98:f3:2b:96:0a:a4:3b:c0:
         a6:f1:28:0b:3c:32:c4:a8:2a:7f:01:a9:3f:b1:87:40:03:54:
         32:e1:18:35:5d:4b:48:ef:26:c6:85:ee:65:c1:dd:f3:b0:97:
         21:7e:52:8c:92:2b:44:40:54:57:d0:38:2d:d9:00:4e:c0:ce:
         ae:c2:69:d1:c0:88:4c:23:84:fd:e9:45:d7:0f:b1:33:c7:c9:
         89:22:66:94:83:e6:75:ef:98:1d:ea:57:8d:de:c2:8c:71:aa:
         99:13:ea:39:ee:8c:78:81:6b:55:3d:01:4e:ab:c0:ea:b7:cf:
         b0:da:2e:01:3a:7b:08:18:91:d4:64:86:31:95:7c:d9:f0:cb:
         e5:12:29:c3:bb:da:74:2e:f3:65:b1:45:36:2a:80:10:3e:1e:
         82:e9:aa:12:b2:f3:ed:49:e9:24:14:a5:b5:d8:c1:06:d1:70:
         b1:ce:03:3d:12:02:8d:ee:43:0b:32:60:37:54:6d:54:e4:c2:
         8a:16:61:5a:d5:98:56:29:f2:02:f4:99:7b:50:af:62:6f:7d:
         f9:1b:56:05:5e:2c:1c:e7:91:c1:8e:a0:9c:bd:4d:3a:7f:fd:
         aa:a2:0a:ba:7c:1f:0c:df:c0:e9:39:ff:36:ed:c2:7d:fc:83:
         3b:2d:77:f6:ea:9d:39:22:57:91:2f:ed:71:9f:33:be:45:31:
         35:27:65:66:30:7f:fe:7c:8c:f9:f5:dc:0f:11:78:b9:36:15:
         44:1f:9f:d2:ca:30:85:4e:24:76:b5:e7:83:90:ad:37:99:58:
         cd:8a:30:b2:af:ba:ad:25:d8:c7:2e:ed:f0:3d:c8:44:07:65:
         c4:1e:e4:a7:83:fb:0a:d1:c9:20:e3:fa:1d:ff:f0:86:61:00:
         99:37:5b:d5:57:15:d6:7a:f2:05:2a:38:99:37:a9:ec:9d:0e:
         9b:8f:fa:10:73:8d:b6:4b:e1:5d:17:76:de:69:35:e0:fa:ed:
         ce:cd:bb:b2:59:17:c4:de:52:5e:d7:2e:34:67:6d:16:58:1c:
         4d:c5:a6:63:39:d3:36:50
-----BEGIN CERTIFICATE-----
MIID0zCCAbugAwIBAgIQcA7nUQFxEmLPgtgZnXV5DTANBgkqhkiG9w0BAQwFADBD
MQswCQYDVQQGEwJVUzEfMB0GA1UECgwWUGVuc2FuZG8gU3lzdGVtcywgSW5jLjET
MBEGA1UEAwwKUFMgUm9vdCBSMTAiGA8yMDE2MTIyMDEyMDAwMFoYDzIwMzYxMjIw
MTIwMDAwWjBKMQswCQYDVQQGEwJVUzEfMB0GA1UECgwWUGVuc2FuZG8gU3lzdGVt
cywgSW5jLjEaMBgGA1UEAwwRTWFudWZhY3R1cmluZyBDQTEwdjAQBgcqhkjOPQIB
BgUrgQQAIgNiAAShpYpwfozCFNW/SadCsZx7dAgMatLw555ye0genxdZwMu8b4mN
xdQiA7Us0FHcQG4nFxTmnUBfEiMIoVRTOLgfy9K/DSupZOtlqiySN5poUp/bQc42
ZxalC/rj/+2LWgCjZjBkMB0GA1UdDgQWBBSWN+NhP3xjSs+ahliyPYe8c8xcmjAf
BgNVHSMEGDAWgBSfCj9BcJ6sKffDNdHwXET7YHhO3zASBgNVHRMBAf8ECDAGAQH/
AgEAMA4GA1UdDwEB/wQEAwIBBjANBgkqhkiG9w0BAQwFAAOCAgEAkYuQ7rG9OidC
6XTaS3ZoEMT4Dqzsd4rvgfNfq94OfPiFzc70CzeZCp6kTPpdJ/+cF/YOcZpXrnXX
9jhLMa/j9ktvZQzQd73tPDZIqAYGeq7kBcogj0t4yu38YzAdNPMoOCG+WfxudJWs
zDD+bZ4tPXAELq91JZjzK5YKpDvApvEoCzwyxKgqfwGpP7GHQANUMuEYNV1LSO8m
xoXuZcHd87CXIX5SjJIrREBUV9A4LdkATsDOrsJp0cCITCOE/elF1w+xM8fJiSJm
lIPmde+YHepXjd7CjHGqmRPqOe6MeIFrVT0BTqvA6rfPsNouATp7CBiR1GSGMZV8
2fDL5RIpw7vadC7zZbFFNiqAED4egumqErLz7UnpJBSltdjBBtFwsc4DPRICje5D
CzJgN1RtVOTCihZhWtWYVinyAvSZe1CvYm99+RtWBV4sHOeRwY6gnL1NOn/9qqIK
unwfDN/A6Tn/Nu3CffyDOy139uqdOSJXkS/tcZ8zvkUxNSdlZjB//nyM+fXcDxF4
uTYVRB+f0sowhU4kdrXng5CtN5lYzYowsq+6rSXYxy7t8D3IRAdlxB7kp4P7CtHJ
IOP6Hf/whmEAmTdb1VcV1nryBSo4mTep7J0Om4/6EHONtkvhXRd23mk14Prtzs27
slkXxN5SXtcuNGdtFlgcTcWmYznTNlA=
-----END CERTIFICATE-----
