Certificate:
    Data:
        Version: 3 (0x2)
        Serial Number:
            e4:7b:fc:69:99:e6:51:7d:a2:2e:22:ed:15:78:b3:b1
    Signature Algorithm: sha384WithRSAEncryption
        Issuer: C=US, O=Pensando Systems, Inc., CN=PS Root R1
        Validity
            Not Before: Dec 20 12:00:00 2016 GMT
            Not After : Dec 20 12:00:00 2036 GMT
        Subject: C=US, O=Pensando Systems, Inc., CN=PS Root R1
        Subject Public Key Info:
            Public Key Algorithm: rsaEncryption
                Public-Key: (4096 bit)
                Modulus:
                    00:b1:58:84:86:03:2c:a0:a6:fc:be:19:c4:f8:c3:
                    35:4c:fc:a0:c6:15:49:49:68:bb:45:8b:6d:80:09:
                    b4:2d:1c:d3:e7:19:9f:b7:31:ee:85:78:36:1c:7f:
                    e0:fc:fd:45:c2:d2:da:77:c9:3f:37:83:fb:8e:f0:
                    7d:df:9d:47:07:f3:91:f9:d8:cf:2c:c7:bb:52:bc:
                    9e:bd:73:ff:76:65:1b:92:38:56:61:ba:69:f8:0f:
                    c0:5c:06:9f:e2:b1:96:e6:d1:d2:a9:cc:35:d8:11:
                    af:7a:f0:2b:2b:b8:af:79:ce:e8:d9:5c:5d:28:a9:
                    ce:cf:fd:99:ec:79:e2:16:0c:af:c5:48:46:20:cd:
                    16:5e:b9:33:9c:07:93:61:95:3a:6a:f6:96:36:20:
                    dc:a0:d6:41:d3:fc:e2:80:e2:58:d3:62:02:3c:85:
                    d8:df:31:df:9e:82:f9:0d:6a:30:de:e9:b3:d9:c1:
                    70:59:dc:32:9f:13:83:d3:f9:cd:c1:85:ee:2a:ce:
                    37:59:24:c8:8e:c2:a6:82:11:e8:84:db:28:ad:85:
                    48:38:51:03:18:9e:91:fa:6e:69:fd:d5:47:e2:d3:
                    34:32:d4:b4:30:6a:c9:d4:18:35:ce:2d:83:bf:2f:
                    aa:39:89:0e:a5:27:54:da:4e:50:f3:dd:2e:05:ae:
                    37:d8:3b:78:1c:b2:0f:c4:17:5a:d9:15:93:9f:e5:
                    b0:b2:a1:d0:58:81:2b:c6:25:ce:bb:97:6f:0b:ca:
                    24:cf:6d:38:51:31:df:13:c2:24:0d:f6:89:b6:c9:
                    57:e6:1b:ee:ac:6a:da:51:bb:4f:ea:3f:e1:ec:bf:
                    42:de:7e:0b:81:f9:80:f1:58:ae:c3:48:e6:1d:6f:
                    02:be:69:90:63:b6:ff:b4:d1:b0:04:c8:83:38:ce:
                    6b:1d:5b:e4:05:32:b4:b1:bb:71:e2:69:a5:9c:99:
                    18:ad:31:5e:26:4f:e6:cc:fc:08:9c:9c:52:c6:00:
                    8f:85:7a:6d:8f:a7:84:9b:aa:a4:eb:b5:ae:4a:33:
                    66:86:44:2d:73:50:07:20:7a:80:94:2c:70:e6:23:
                    6d:86:42:6b:e5:99:a6:74:3b:56:c2:5a:1d:1b:15:
                    77:b7:36:2d:ff:79:e0:9c:ef:38:11:a4:28:b3:a2:
                    e1:4c:a2:f6:ca:b7:da:88:00:5d:e4:be:2f:23:4a:
                    a3:e2:c6:26:46:20:53:c9:1d:3f:6d:85:10:9f:8c:
                    d0:ed:b1:5e:0f:be:2f:85:b4:3a:00:6d:46:e5:e3:
                    65:a2:7f:8a:d3:91:f0:86:40:60:22:9f:51:ff:36:
                    28:7d:ba:14:23:d2:6f:01:b9:3b:d5:37:95:72:47:
                    1c:0a:c5
                Exponent: 65537 (0x10001)
        X509v3 extensions:
            X509v3 Subject Key Identifier: 
                9F:0A:3F:41:70:9E:AC:29:F7:C3:35:D1:F0:5C:44:FB:60:78:4E:DF
            X509v3 Basic Constraints: critical
                CA:TRUE
            X509v3 Key Usage: critical
                Certificate Sign, CRL Sign
    Signature Algorithm: sha384WithRSAEncryption
         1e:56:f4:09:27:92:6d:ff:d7:ab:9c:e6:c6:ed:67:3c:ac:28:
         54:07:36:6a:60:ce:dd:84:e1:51:dd:3f:16:d0:32:f0:0c:f3:
         1b:fb:b1:bd:d0:b0:e5:26:6d:53:3d:cc:10:f6:df:de:97:db:
         1f:78:f3:39:72:d3:bb:bd:53:41:da:60:f4:82:1d:6b:68:45:
         b1:8a:d7:a5:9b:f0:33:94:e7:b8:84:23:e0:fa:7e:5c:5a:fd:
         15:b7:ae:f1:cc:26:4c:47:b4:fe:5d:c7:78:fa:e9:8f:d8:41:
         82:28:63:9e:e7:9b:54:8a:dc:a1:24:9a:19:b0:33:7e:3a:8b:
         e9:f6:46:27:45:de:a7:93:e4:27:e4:f3:ca:9a:60:ab:db:25:
         bb:99:ad:f7:10:38:9b:d9:b0:cf:6f:99:26:9b:bc:9c:b5:48:
         98:4d:5f:34:da:a3:c1:d2:f7:e9:4e:f1:72:25:28:68:f1:63:
         aa:63:76:53:c3:62:a2:dd:e1:8e:bd:e8:84:55:e7:01:98:32:
         b8:49:e3:74:ff:f6:a7:c0:e2:fa:c1:b4:f1:12:78:64:ce:43:
         06:95:c4:e5:04:6f:6d:27:95:91:cf:f8:bf:b7:ec:ec:f4:18:
         72:48:c7:b3:9f:b3:cb:62:c2:78:50:06:d7:f4:44:d4:61:42:
         0b:b9:0f:13:af:e3:75:8c:ec:92:43:a4:3c:2d:c2:95:28:ac:
         dd:38:8a:ec:cc:75:bd:27:d8:9f:83:cd:be:5a:07:99:97:5c:
         64:41:15:93:9c:e0:1b:aa:ac:5d:91:a0:75:56:6c:00:96:0b:
         00:82:26:f3:0e:25:08:8b:34:ce:bc:b5:b8:b1:35:7b:48:48:
         7a:06:c4:57:c9:68:96:ef:4f:54:cc:d5:09:de:06:58:f7:de:
         4f:c3:43:27:19:80:a7:ce:d6:04:2b:c5:c4:54:47:e6:4e:f4:
         e1:76:10:93:35:2f:a2:89:9f:b3:61:7f:2f:17:bf:52:80:3f:
         52:c8:f2:18:b3:3d:fd:2c:6c:f0:10:b0:42:84:54:aa:0c:ad:
         64:ef:1e:86:54:6d:84:cb:7c:68:dc:79:04:3b:f6:7e:b0:4f:
         ec:d6:d7:0f:43:f9:5b:f0:8d:ca:3c:9a:e3:5d:b9:d6:ed:85:
         9a:19:86:18:2d:47:7c:85:17:9f:1d:03:55:91:d2:07:5c:84:
         ea:9a:c9:b6:67:8d:08:74:6f:8b:e2:3d:a0:00:0c:c1:97:f5:
         de:78:07:c3:4d:9f:66:4c:4e:80:aa:bf:a8:15:3b:da:da:4d:
         bc:f9:dd:04:0e:08:a2:9b:a7:02:a6:ca:71:c0:68:6b:e1:f8:
         d9:63:89:76:92:de:04:c9
-----BEGIN CERTIFICATE-----
MIIFVzCCAz+gAwIBAgIRAOR7/GmZ5lF9oi4i7RV4s7EwDQYJKoZIhvcNAQEMBQAw
QzELMAkGA1UEBhMCVVMxHzAdBgNVBAoMFlBlbnNhbmRvIFN5c3RlbXMsIEluYy4x
EzARBgNVBAMMClBTIFJvb3QgUjEwIhgPMjAxNjEyMjAxMjAwMDBaGA8yMDM2MTIy
MDEyMDAwMFowQzELMAkGA1UEBhMCVVMxHzAdBgNVBAoMFlBlbnNhbmRvIFN5c3Rl
bXMsIEluYy4xEzARBgNVBAMMClBTIFJvb3QgUjEwggIiMA0GCSqGSIb3DQEBAQUA
A4ICDwAwggIKAoICAQCxWISGAyygpvy+GcT4wzVM/KDGFUlJaLtFi22ACbQtHNPn
GZ+3Me6FeDYcf+D8/UXC0tp3yT83g/uO8H3fnUcH85H52M8sx7tSvJ69c/92ZRuS
OFZhumn4D8BcBp/isZbm0dKpzDXYEa968CsruK95zujZXF0oqc7P/ZnseeIWDK/F
SEYgzRZeuTOcB5NhlTpq9pY2INyg1kHT/OKA4ljTYgI8hdjfMd+egvkNajDe6bPZ
wXBZ3DKfE4PT+c3Bhe4qzjdZJMiOwqaCEeiE2yithUg4UQMYnpH6bmn91Ufi0zQy
1LQwasnUGDXOLYO/L6o5iQ6lJ1TaTlDz3S4FrjfYO3gcsg/EF1rZFZOf5bCyodBY
gSvGJc67l28LyiTPbThRMd8TwiQN9om2yVfmG+6satpRu0/qP+Hsv0LefguB+YDx
WK7DSOYdbwK+aZBjtv+00bAEyIM4zmsdW+QFMrSxu3HiaaWcmRitMV4mT+bM/Aic
nFLGAI+Fem2Pp4SbqqTrta5KM2aGRC1zUAcgeoCULHDmI22GQmvlmaZ0O1bCWh0b
FXe3Ni3/eeCc7zgRpCizouFMovbKt9qIAF3kvi8jSqPixiZGIFPJHT9thRCfjNDt
sV4Pvi+FtDoAbUbl42Wif4rTkfCGQGAin1H/Nih9uhQj0m8BuTvVN5VyRxwKxQID
AQABo0IwQDAdBgNVHQ4EFgQUnwo/QXCerCn3wzXR8FxE+2B4Tt8wDwYDVR0TAQH/
BAUwAwEB/zAOBgNVHQ8BAf8EBAMCAQYwDQYJKoZIhvcNAQEMBQADggIBAB5W9Akn
km3/16uc5sbtZzysKFQHNmpgzt2E4VHdPxbQMvAM8xv7sb3QsOUmbVM9zBD2396X
2x948zly07u9U0HaYPSCHWtoRbGK16Wb8DOU57iEI+D6flxa/RW3rvHMJkxHtP5d
x3j66Y/YQYIoY57nm1SK3KEkmhmwM346i+n2RidF3qeT5Cfk88qaYKvbJbuZrfcQ
OJvZsM9vmSabvJy1SJhNXzTao8HS9+lO8XIlKGjxY6pjdlPDYqLd4Y696IRV5wGY
MrhJ43T/9qfA4vrBtPESeGTOQwaVxOUEb20nlZHP+L+37Oz0GHJIx7Ofs8tiwnhQ
Btf0RNRhQgu5DxOv43WM7JJDpDwtwpUorN04iuzMdb0n2J+Dzb5aB5mXXGRBFZOc
4BuqrF2RoHVWbACWCwCCJvMOJQiLNM68tbixNXtISHoGxFfJaJbvT1TM1QneBlj3
3k/DQycZgKfO1gQrxcRUR+ZO9OF2EJM1L6KJn7Nhfy8Xv1KAP1LI8hizPf0sbPAQ
sEKEVKoMrWTvHoZUbYTLfGjceQQ79n6wT+zW1w9D+Vvwjco8muNdudbthZoZhhgt
R3yFF58dA1WR0gdchOqaybZnjQh0b4viPaAADMGX9d54B8NNn2ZMToCqv6gVO9ra
Tbz53QQOCKKbpwKmynHAaGvh+NljiXaS3gTJ
-----END CERTIFICATE-----
